target datalayout = "e-m:e-p270:32:32-p271:32:32-p272:64:64-i64:64-i128:128-f80:128-n8:16:32:64-S128"
target triple = "x86_64-pc-linux-gnu"

%"class.icu_77::Quantifier" = type { %"class.icu_77::UnicodeFunctor", %"class.icu_77::UnicodeMatcher", ptr, i32, i32 }
%"class.icu_77::UnicodeFunctor" = type { %"class.icu_77::UObject" }
%"class.icu_77::UObject" = type { ptr }
%"class.icu_77::UnicodeMatcher" = type { ptr }

; Function Attrs: mustprogress uwtable
define noundef signext i8 @_ZNK6icu_7710Quantifier17matchesIndexValueEh(ptr noundef nonnull align 8 dereferenceable(32) %0, i8 noundef zeroext %1) unnamed_addr #1 align 2 {
  %3 = alloca ptr, align 8
  %4 = alloca i8, align 1
  store ptr %0, ptr %3, align 8, !tbaa !23
  store i8 %1, ptr %4, align 1, !tbaa !40
  %5 = load ptr, ptr %3, align 8
  %6 = getelementptr inbounds nuw %"class.icu_77::Quantifier", ptr %5, i32 0, i32 3
  %7 = load i32, ptr %6, align 8, !tbaa !34
  %8 = icmp eq i32 %7, 0
  br i1 %8, label %22, label %9

9:                                                ; preds = %2
  %10 = getelementptr inbounds nuw %"class.icu_77::Quantifier", ptr %5, i32 0, i32 2
  %11 = load ptr, ptr %10, align 8, !tbaa !29
  %12 = load ptr, ptr %11, align 8, !tbaa !27
  %13 = getelementptr inbounds ptr, ptr %12, i64 4
  %14 = load ptr, ptr %13, align 8
  %15 = call noundef ptr %14(ptr noundef nonnull align 8 dereferenceable(8) %11)
  %16 = load i8, ptr %4, align 1, !tbaa !40
  %17 = load ptr, ptr %15, align 8, !tbaa !27
  %18 = getelementptr inbounds ptr, ptr %17, i64 4
  %19 = load ptr, ptr %18, align 8
  %20 = call noundef signext i8 %19(ptr noundef nonnull align 8 dereferenceable(8) %15, i8 noundef zeroext %16)
  %21 = icmp ne i8 %20, 0
  br label %22

22:                                               ; preds = %9, %2
  %23 = phi i1 [ true, %2 ], [ %21, %9 ]
  %24 = zext i1 %23 to i8
  ret i8 %24
}