; Function Attrs: mustprogress uwtable
define noundef signext range(i8 0, 2) i8 @_ZNK6icu_7710Quantifier17matchesIndexValueEh(ptr noundef nonnull readonly align 8 captures(none) dereferenceable(32) %0, i8 noundef zeroext %1) unnamed_addr #1 align 2 {
  %3 = getelementptr inbounds nuw i8, ptr %0, i64 24
  %4 = load i32, ptr %3, align 8, !tbaa !23
  %5 = icmp eq i32 %4, 0
  br i1 %5, label %19, label %6

6:                                                ; preds = %2
  %7 = getelementptr inbounds nuw i8, ptr %0, i64 16
  %8 = load ptr, ptr %7, align 8, !tbaa !17
  %9 = load ptr, ptr %8, align 8, !tbaa !15
  %10 = getelementptr inbounds nuw i8, ptr %9, i64 32
  %11 = load ptr, ptr %10, align 8
  %12 = tail call noundef ptr %11(ptr noundef nonnull align 8 dereferenceable(8) %8)
  %13 = load ptr, ptr %12, align 8, !tbaa !15
  %14 = getelementptr inbounds nuw i8, ptr %13, i64 32
  %15 = load ptr, ptr %14, align 8
  %16 = tail call noundef signext i8 %15(ptr noundef nonnull align 8 dereferenceable(8) %12, i8 noundef zeroext %1)
  %17 = icmp ne i8 %16, 0
  %18 = zext i1 %17 to i8
  br label %19

19:                                               ; preds = %6, %2
  %20 = phi i8 [ 1, %2 ], [ %18, %6 ]
  ret i8 %20
}